#include <math.h>
#include <stdio.h>
#include <stdlib.h>
#include <string.h>

int main()
{
    int n;
    int a[9000],ans[9000];
    scanf("%d",&n);
    int i,j;
    int num=1,t=0;
    scanf("%d",&a[0]);
    ans[0]=a[0];
    printf("%d",a[0]);
    for(i=1;i<n;i++)
    {
                    scanf("%d",&a[i]);
                    int j=0;
                    while(j<num)
                    {
                                if(a[i]==ans[j]) 
                                {
                                                 t=1;
                                                 break;
                                }
                                j++;
                    }
                    if(t==0) 
                    {
                             ans[num]=a[i];
                             printf(" %d",ans[num]);
                             num++;
                    }
                    else  t=0;
    }
    getchar();
    getchar();
    getchar();
}
                                     
    
